target datalayout = "e-m:e-p270:32:32-p271:32:32-p272:64:64-i64:64-i128:128-f80:128-n8:16:32:64-S128"
target triple = "x86_64-pc-linux-gnu"

%"class.clang::ento::DefinedOrUnknownSVal" = type { %"class.clang::ento::SVal.base", [7 x i8] }
%"class.clang::ento::SVal.base" = type <{ ptr, i8 }>
%"struct.std::pair.1019" = type { ptr, ptr }
%"struct.(anonymous namespace)::ConstrainedPropertyVal" = type { %"class.clang::ento::DefinedOrUnknownSVal", i8, [7 x i8] }
%"struct.std::pair.1025" = type { %"struct.std::pair.1019", %"struct.(anonymous namespace)::ConstrainedPropertyVal" }
%"class.llvm::ImutAVLTree.1024" = type { ptr, ptr, ptr, ptr, ptr, i32, %"struct.std::pair.1025", i32, i32 }
%"struct.std::equal_to.1027" = type { i8 }
%"struct.std::less" = type { i8 }

; Function Attrs: mustprogress nounwind uwtable
define linkonce_odr noundef zeroext i1 @_ZStltIPKN5clang4ento9MemRegionEPKNS0_14IdentifierInfoEEbRKSt4pairIT_T0_ESD_(ptr noundef nonnull align 8 dereferenceable(16) %0, ptr noundef nonnull align 8 dereferenceable(16) %1) #0 comdat {
  %3 = alloca ptr, align 8
  %4 = alloca ptr, align 8
  store ptr %0, ptr %3, align 8
  store ptr %1, ptr %4, align 8
  %5 = load ptr, ptr %3, align 8
  %6 = getelementptr inbounds nuw %"struct.std::pair.1019", ptr %5, i32 0, i32 0
  %7 = load ptr, ptr %6, align 8
  %8 = load ptr, ptr %4, align 8
  %9 = getelementptr inbounds nuw %"struct.std::pair.1019", ptr %8, i32 0, i32 0
  %10 = load ptr, ptr %9, align 8
  %11 = icmp ult ptr %7, %10
  br i1 %11, label %30, label %12

12:                                               ; preds = %2
  %13 = load ptr, ptr %4, align 8
  %14 = getelementptr inbounds nuw %"struct.std::pair.1019", ptr %13, i32 0, i32 0
  %15 = load ptr, ptr %14, align 8
  %16 = load ptr, ptr %3, align 8
  %17 = getelementptr inbounds nuw %"struct.std::pair.1019", ptr %16, i32 0, i32 0
  %18 = load ptr, ptr %17, align 8
  %19 = icmp ult ptr %15, %18
  br i1 %19, label %28, label %20

20:                                               ; preds = %12
  %21 = load ptr, ptr %3, align 8
  %22 = getelementptr inbounds nuw %"struct.std::pair.1019", ptr %21, i32 0, i32 1
  %23 = load ptr, ptr %22, align 8
  %24 = load ptr, ptr %4, align 8
  %25 = getelementptr inbounds nuw %"struct.std::pair.1019", ptr %24, i32 0, i32 1
  %26 = load ptr, ptr %25, align 8
  %27 = icmp ult ptr %23, %26
  br label %28

28:                                               ; preds = %20, %12
  %29 = phi i1 [ false, %12 ], [ %27, %20 ]
  br label %30

30:                                               ; preds = %28, %2
  %31 = phi i1 [ true, %2 ], [ %29, %28 ]
  ret i1 %31
}

; Function Attrs: mustprogress nounwind uwtable
define linkonce_odr noundef zeroext i1 @_ZSteqIPKN5clang4ento9MemRegionEPKNS0_14IdentifierInfoEEbRKSt4pairIT_T0_ESD_(ptr noundef nonnull align 8 dereferenceable(16) %0, ptr noundef nonnull align 8 dereferenceable(16) %1) #0 comdat {
  %3 = alloca ptr, align 8
  %4 = alloca ptr, align 8
  store ptr %0, ptr %3, align 8
  store ptr %1, ptr %4, align 8
  %5 = load ptr, ptr %3, align 8
  %6 = getelementptr inbounds nuw %"struct.std::pair.1019", ptr %5, i32 0, i32 0
  %7 = load ptr, ptr %6, align 8
  %8 = load ptr, ptr %4, align 8
  %9 = getelementptr inbounds nuw %"struct.std::pair.1019", ptr %8, i32 0, i32 0
  %10 = load ptr, ptr %9, align 8
  %11 = icmp eq ptr %7, %10
  br i1 %11, label %12, label %20

12:                                               ; preds = %2
  %13 = load ptr, ptr %3, align 8
  %14 = getelementptr inbounds nuw %"struct.std::pair.1019", ptr %13, i32 0, i32 1
  %15 = load ptr, ptr %14, align 8
  %16 = load ptr, ptr %4, align 8
  %17 = getelementptr inbounds nuw %"struct.std::pair.1019", ptr %16, i32 0, i32 1
  %18 = load ptr, ptr %17, align 8
  %19 = icmp eq ptr %15, %18
  br label %20

20:                                               ; preds = %12, %2
  %21 = phi i1 [ false, %2 ], [ %19, %12 ]
  ret i1 %21
}

; Function Attrs: mustprogress nounwind uwtable
define linkonce_odr hidden noundef zeroext i1 @_ZNKSt4lessIKSt4pairIPKN5clang4ento9MemRegionEPKNS1_14IdentifierInfoEEEclERSA_SC_(ptr noundef nonnull align 1 dereferenceable(1) %0, ptr noundef nonnull align 8 dereferenceable(16) %1, ptr noundef nonnull align 8 dereferenceable(16) %2) #0 comdat align 2 {
  %4 = alloca ptr, align 8
  %5 = alloca ptr, align 8
  %6 = alloca ptr, align 8
  store ptr %0, ptr %4, align 8
  store ptr %1, ptr %5, align 8
  store ptr %2, ptr %6, align 8
  %7 = load ptr, ptr %5, align 8
  %8 = load ptr, ptr %6, align 8
  %9 = call noundef zeroext i1 @_ZStltIPKN5clang4ento9MemRegionEPKNS0_14IdentifierInfoEEbRKSt4pairIT_T0_ESD_(ptr noundef nonnull align 8 dereferenceable(16) %7, ptr noundef nonnull align 8 dereferenceable(16) %8)
  ret i1 %9
}

; Function Attrs: mustprogress nounwind uwtable
define linkonce_odr hidden noundef zeroext i1 @_ZNKSt8equal_toIKSt4pairIPKN5clang4ento9MemRegionEPKNS1_14IdentifierInfoEEEclERSA_SC_(ptr noundef nonnull align 1 dereferenceable(1) %0, ptr noundef nonnull align 8 dereferenceable(16) %1, ptr noundef nonnull align 8 dereferenceable(16) %2) #0 comdat align 2 {
  %4 = alloca ptr, align 8
  %5 = alloca ptr, align 8
  %6 = alloca ptr, align 8
  store ptr %0, ptr %4, align 8
  store ptr %1, ptr %5, align 8
  store ptr %2, ptr %6, align 8
  %7 = load ptr, ptr %5, align 8
  %8 = load ptr, ptr %6, align 8
  %9 = call noundef zeroext i1 @_ZSteqIPKN5clang4ento9MemRegionEPKNS0_14IdentifierInfoEEbRKSt4pairIT_T0_ESD_(ptr noundef nonnull align 8 dereferenceable(16) %7, ptr noundef nonnull align 8 dereferenceable(16) %8)
  ret i1 %9
}

; Function Attrs: mustprogress nounwind uwtable
define linkonce_odr hidden noundef zeroext i1 @_ZN4llvm17ImutContainerInfoISt4pairIPKN5clang4ento9MemRegionEPKNS2_14IdentifierInfoEEE6isLessERKSA_SD_(ptr noundef nonnull align 8 dereferenceable(16) %0, ptr noundef nonnull align 8 dereferenceable(16) %1) #0 comdat align 2 {
  %3 = alloca ptr, align 8
  %4 = alloca ptr, align 8
  %5 = alloca %"struct.std::less", align 1
  store ptr %0, ptr %3, align 8
  store ptr %1, ptr %4, align 8
  %6 = load ptr, ptr %3, align 8
  %7 = load ptr, ptr %4, align 8
  %8 = call noundef zeroext i1 @_ZNKSt4lessIKSt4pairIPKN5clang4ento9MemRegionEPKNS1_14IdentifierInfoEEEclERSA_SC_(ptr noundef nonnull align 1 dereferenceable(1) %5, ptr noundef nonnull align 8 dereferenceable(16) %6, ptr noundef nonnull align 8 dereferenceable(16) %7)
  ret i1 %8
}

; Function Attrs: mustprogress nounwind uwtable
define internal noundef ptr @_ZNK4llvm11ImutAVLTreeINS_16ImutKeyValueInfoISt4pairIPKN5clang4ento9MemRegionEPKNS3_14IdentifierInfoEEN12_GLOBAL__N_122ConstrainedPropertyValEEEE8getRightEv(ptr noundef nonnull align 8 dereferenceable(96) %0) #0 align 2 {
  %2 = alloca ptr, align 8
  store ptr %0, ptr %2, align 8
  %3 = load ptr, ptr %2, align 8
  %4 = getelementptr inbounds nuw %"class.llvm::ImutAVLTree.1024", ptr %3, i32 0, i32 2
  %5 = load ptr, ptr %4, align 8
  ret ptr %5
}

; Function Attrs: mustprogress nounwind uwtable
define internal noundef ptr @_ZNK4llvm11ImutAVLTreeINS_16ImutKeyValueInfoISt4pairIPKN5clang4ento9MemRegionEPKNS3_14IdentifierInfoEEN12_GLOBAL__N_122ConstrainedPropertyValEEEE7getLeftEv(ptr noundef nonnull align 8 dereferenceable(96) %0) #0 align 2 {
  %2 = alloca ptr, align 8
  store ptr %0, ptr %2, align 8
  %3 = load ptr, ptr %2, align 8
  %4 = getelementptr inbounds nuw %"class.llvm::ImutAVLTree.1024", ptr %3, i32 0, i32 1
  %5 = load ptr, ptr %4, align 8
  ret ptr %5
}

; Function Attrs: mustprogress nounwind uwtable
define linkonce_odr hidden noundef zeroext i1 @_ZN4llvm17ImutContainerInfoISt4pairIPKN5clang4ento9MemRegionEPKNS2_14IdentifierInfoEEE7isEqualERKSA_SD_(ptr noundef nonnull align 8 dereferenceable(16) %0, ptr noundef nonnull align 8 dereferenceable(16) %1) #0 comdat align 2 {
  %3 = alloca ptr, align 8
  %4 = alloca ptr, align 8
  %5 = alloca %"struct.std::equal_to.1027", align 1
  store ptr %0, ptr %3, align 8
  store ptr %1, ptr %4, align 8
  %6 = load ptr, ptr %3, align 8
  %7 = load ptr, ptr %4, align 8
  %8 = call noundef zeroext i1 @_ZNKSt8equal_toIKSt4pairIPKN5clang4ento9MemRegionEPKNS1_14IdentifierInfoEEEclERSA_SC_(ptr noundef nonnull align 1 dereferenceable(1) %5, ptr noundef nonnull align 8 dereferenceable(16) %6, ptr noundef nonnull align 8 dereferenceable(16) %7)
  ret i1 %8
}

; Function Attrs: mustprogress nounwind uwtable
define internal noundef zeroext i1 @_ZN4llvm16ImutKeyValueInfoISt4pairIPKN5clang4ento9MemRegionEPKNS2_14IdentifierInfoEEN12_GLOBAL__N_122ConstrainedPropertyValEE6isLessERKSA_SF_(ptr noundef nonnull align 8 dereferenceable(16) %0, ptr noundef nonnull align 8 dereferenceable(16) %1) #0 align 2 {
  %3 = alloca ptr, align 8
  %4 = alloca ptr, align 8
  store ptr %0, ptr %3, align 8
  store ptr %1, ptr %4, align 8
  %5 = load ptr, ptr %3, align 8
  %6 = load ptr, ptr %4, align 8
  %7 = call noundef zeroext i1 @_ZN4llvm17ImutContainerInfoISt4pairIPKN5clang4ento9MemRegionEPKNS2_14IdentifierInfoEEE6isLessERKSA_SD_(ptr noundef nonnull align 8 dereferenceable(16) %5, ptr noundef nonnull align 8 dereferenceable(16) %6)
  ret i1 %7
}

; Function Attrs: mustprogress nounwind uwtable
define internal noundef ptr @_ZNK4llvm14ImutAVLFactoryINS_16ImutKeyValueInfoISt4pairIPKN5clang4ento9MemRegionEPKNS3_14IdentifierInfoEEN12_GLOBAL__N_122ConstrainedPropertyValEEEE8getRightEPNS_11ImutAVLTreeISE_EE(ptr noundef nonnull align 8 dereferenceable(80) %0, ptr noundef %1) #0 align 2 {
  %3 = alloca ptr, align 8
  %4 = alloca ptr, align 8
  store ptr %0, ptr %3, align 8
  store ptr %1, ptr %4, align 8
  %5 = load ptr, ptr %4, align 8
  %6 = call noundef ptr @_ZNK4llvm11ImutAVLTreeINS_16ImutKeyValueInfoISt4pairIPKN5clang4ento9MemRegionEPKNS3_14IdentifierInfoEEN12_GLOBAL__N_122ConstrainedPropertyValEEEE8getRightEv(ptr noundef nonnull align 8 dereferenceable(96) %5)
  ret ptr %6
}

; Function Attrs: mustprogress nounwind uwtable
define internal noundef ptr @_ZNK4llvm14ImutAVLFactoryINS_16ImutKeyValueInfoISt4pairIPKN5clang4ento9MemRegionEPKNS3_14IdentifierInfoEEN12_GLOBAL__N_122ConstrainedPropertyValEEEE7getLeftEPNS_11ImutAVLTreeISE_EE(ptr noundef nonnull align 8 dereferenceable(80) %0, ptr noundef %1) #0 align 2 {
  %3 = alloca ptr, align 8
  %4 = alloca ptr, align 8
  store ptr %0, ptr %3, align 8
  store ptr %1, ptr %4, align 8
  %5 = load ptr, ptr %4, align 8
  %6 = call noundef ptr @_ZNK4llvm11ImutAVLTreeINS_16ImutKeyValueInfoISt4pairIPKN5clang4ento9MemRegionEPKNS3_14IdentifierInfoEEN12_GLOBAL__N_122ConstrainedPropertyValEEEE7getLeftEv(ptr noundef nonnull align 8 dereferenceable(96) %5)
  ret ptr %6
}

; Function Attrs: mustprogress nounwind uwtable
define internal noundef zeroext i1 @_ZN4llvm16ImutKeyValueInfoISt4pairIPKN5clang4ento9MemRegionEPKNS2_14IdentifierInfoEEN12_GLOBAL__N_122ConstrainedPropertyValEE7isEqualERKSA_SF_(ptr noundef nonnull align 8 dereferenceable(16) %0, ptr noundef nonnull align 8 dereferenceable(16) %1) #0 align 2 {
  %3 = alloca ptr, align 8
  %4 = alloca ptr, align 8
  store ptr %0, ptr %3, align 8
  store ptr %1, ptr %4, align 8
  %5 = load ptr, ptr %3, align 8
  %6 = load ptr, ptr %4, align 8
  %7 = call noundef zeroext i1 @_ZN4llvm17ImutContainerInfoISt4pairIPKN5clang4ento9MemRegionEPKNS2_14IdentifierInfoEEE7isEqualERKSA_SD_(ptr noundef nonnull align 8 dereferenceable(16) %5, ptr noundef nonnull align 8 dereferenceable(16) %6)
  ret i1 %7
}

; Function Attrs: mustprogress nounwind uwtable
define internal noundef nonnull align 8 dereferenceable(40) ptr @_ZNK4llvm14ImutAVLFactoryINS_16ImutKeyValueInfoISt4pairIPKN5clang4ento9MemRegionEPKNS3_14IdentifierInfoEEN12_GLOBAL__N_122ConstrainedPropertyValEEEE8getValueEPNS_11ImutAVLTreeISE_EE(ptr noundef nonnull align 8 dereferenceable(80) %0, ptr noundef %1) #0 align 2 {
  %3 = alloca ptr, align 8
  %4 = alloca ptr, align 8
  store ptr %0, ptr %3, align 8
  store ptr %1, ptr %4, align 8
  %5 = load ptr, ptr %4, align 8
  %6 = getelementptr inbounds nuw %"class.llvm::ImutAVLTree.1024", ptr %5, i32 0, i32 6
  ret ptr %6
}

; Function Attrs: mustprogress nounwind uwtable
define internal noundef nonnull align 8 dereferenceable(16) ptr @_ZN4llvm16ImutKeyValueInfoISt4pairIPKN5clang4ento9MemRegionEPKNS2_14IdentifierInfoEEN12_GLOBAL__N_122ConstrainedPropertyValEE10KeyOfValueERKS1_ISA_SC_E(ptr noundef nonnull align 8 dereferenceable(40) %0) #0 align 2 {
  %2 = alloca ptr, align 8
  store ptr %0, ptr %2, align 8
  %3 = load ptr, ptr %2, align 8
  %4 = getelementptr inbounds nuw %"struct.std::pair.1025", ptr %3, i32 0, i32 0
  ret ptr %4
}

; Function Attrs: mustprogress nounwind uwtable
define internal noundef zeroext i1 @_ZNK4llvm14ImutAVLFactoryINS_16ImutKeyValueInfoISt4pairIPKN5clang4ento9MemRegionEPKNS3_14IdentifierInfoEEN12_GLOBAL__N_122ConstrainedPropertyValEEEE7isEmptyEPNS_11ImutAVLTreeISE_EE(ptr noundef nonnull align 8 dereferenceable(80) %0, ptr noundef %1) #0 align 2 {
  %3 = alloca ptr, align 8
  %4 = alloca ptr, align 8
  store ptr %0, ptr %3, align 8
  store ptr %1, ptr %4, align 8
  %5 = load ptr, ptr %4, align 8
  %6 = icmp ne ptr %5, null
  %7 = xor i1 %6, true
  ret i1 %7
}

; Function Attrs: mustprogress nounwind uwtable
define internal noundef ptr @_ZN4llvm14ImutAVLFactoryINS_16ImutKeyValueInfoISt4pairIPKN5clang4ento9MemRegionEPKNS3_14IdentifierInfoEEN12_GLOBAL__N_122ConstrainedPropertyValEEEE12add_internalERKS2_ISB_SD_EPNS_11ImutAVLTreeISE_EE(ptr noundef nonnull align 8 dereferenceable(80) %0, ptr noundef nonnull align 8 dereferenceable(40) %1, ptr noundef %2) #0 align 2 {
  %4 = alloca ptr, align 8
  %5 = alloca ptr, align 8
  %6 = alloca ptr, align 8
  %7 = alloca ptr, align 8
  %8 = alloca ptr, align 8
  %9 = alloca ptr, align 8
  store ptr %0, ptr %5, align 8
  store ptr %1, ptr %6, align 8
  store ptr %2, ptr %7, align 8
  %10 = load ptr, ptr %5, align 8
  %11 = load ptr, ptr %7, align 8
  %12 = call noundef zeroext i1 @_ZNK4llvm14ImutAVLFactoryINS_16ImutKeyValueInfoISt4pairIPKN5clang4ento9MemRegionEPKNS3_14IdentifierInfoEEN12_GLOBAL__N_122ConstrainedPropertyValEEEE7isEmptyEPNS_11ImutAVLTreeISE_EE(ptr noundef nonnull align 8 dereferenceable(80) %10, ptr noundef %11)
  br i1 %12, label %13, label %18

13:                                               ; preds = %3
  %14 = load ptr, ptr %7, align 8
  %15 = load ptr, ptr %6, align 8
  %16 = load ptr, ptr %7, align 8
  %17 = call noundef ptr @_ZN4llvm14ImutAVLFactoryINS_16ImutKeyValueInfoISt4pairIPKN5clang4ento9MemRegionEPKNS3_14IdentifierInfoEEN12_GLOBAL__N_122ConstrainedPropertyValEEEE10createNodeEPNS_11ImutAVLTreeISE_EERKS2_ISB_SD_ESI_(ptr noundef nonnull align 8 dereferenceable(80) %10, ptr noundef %14, ptr noundef nonnull align 8 dereferenceable(40) %15, ptr noundef %16)
  store ptr %17, ptr %4, align 8
  br label %58

18:                                               ; preds = %3
  %19 = load ptr, ptr %6, align 8
  %20 = call noundef nonnull align 8 dereferenceable(16) ptr @_ZN4llvm16ImutKeyValueInfoISt4pairIPKN5clang4ento9MemRegionEPKNS2_14IdentifierInfoEEN12_GLOBAL__N_122ConstrainedPropertyValEE10KeyOfValueERKS1_ISA_SC_E(ptr noundef nonnull align 8 dereferenceable(40) %19)
  store ptr %20, ptr %8, align 8
  %21 = load ptr, ptr %7, align 8
  %22 = call noundef nonnull align 8 dereferenceable(40) ptr @_ZNK4llvm14ImutAVLFactoryINS_16ImutKeyValueInfoISt4pairIPKN5clang4ento9MemRegionEPKNS3_14IdentifierInfoEEN12_GLOBAL__N_122ConstrainedPropertyValEEEE8getValueEPNS_11ImutAVLTreeISE_EE(ptr noundef nonnull align 8 dereferenceable(80) %10, ptr noundef %21)
  %23 = call noundef nonnull align 8 dereferenceable(16) ptr @_ZN4llvm16ImutKeyValueInfoISt4pairIPKN5clang4ento9MemRegionEPKNS2_14IdentifierInfoEEN12_GLOBAL__N_122ConstrainedPropertyValEE10KeyOfValueERKS1_ISA_SC_E(ptr noundef nonnull align 8 dereferenceable(40) %22)
  store ptr %23, ptr %9, align 8
  %24 = load ptr, ptr %8, align 8
  %25 = load ptr, ptr %9, align 8
  %26 = call noundef zeroext i1 @_ZN4llvm16ImutKeyValueInfoISt4pairIPKN5clang4ento9MemRegionEPKNS2_14IdentifierInfoEEN12_GLOBAL__N_122ConstrainedPropertyValEE7isEqualERKSA_SF_(ptr noundef nonnull align 8 dereferenceable(16) %24, ptr noundef nonnull align 8 dereferenceable(16) %25)
  br i1 %26, label %27, label %34

27:                                               ; preds = %18
  %28 = load ptr, ptr %7, align 8
  %29 = call noundef ptr @_ZNK4llvm14ImutAVLFactoryINS_16ImutKeyValueInfoISt4pairIPKN5clang4ento9MemRegionEPKNS3_14IdentifierInfoEEN12_GLOBAL__N_122ConstrainedPropertyValEEEE7getLeftEPNS_11ImutAVLTreeISE_EE(ptr noundef nonnull align 8 dereferenceable(80) %10, ptr noundef %28)
  %30 = load ptr, ptr %6, align 8
  %31 = load ptr, ptr %7, align 8
  %32 = call noundef ptr @_ZNK4llvm14ImutAVLFactoryINS_16ImutKeyValueInfoISt4pairIPKN5clang4ento9MemRegionEPKNS3_14IdentifierInfoEEN12_GLOBAL__N_122ConstrainedPropertyValEEEE8getRightEPNS_11ImutAVLTreeISE_EE(ptr noundef nonnull align 8 dereferenceable(80) %10, ptr noundef %31)
  %33 = call noundef ptr @_ZN4llvm14ImutAVLFactoryINS_16ImutKeyValueInfoISt4pairIPKN5clang4ento9MemRegionEPKNS3_14IdentifierInfoEEN12_GLOBAL__N_122ConstrainedPropertyValEEEE10createNodeEPNS_11ImutAVLTreeISE_EERKS2_ISB_SD_ESI_(ptr noundef nonnull align 8 dereferenceable(80) %10, ptr noundef %29, ptr noundef nonnull align 8 dereferenceable(40) %30, ptr noundef %32)
  store ptr %33, ptr %4, align 8
  br label %58

34:                                               ; preds = %18
  %35 = load ptr, ptr %8, align 8
  %36 = load ptr, ptr %9, align 8
  %37 = call noundef zeroext i1 @_ZN4llvm16ImutKeyValueInfoISt4pairIPKN5clang4ento9MemRegionEPKNS2_14IdentifierInfoEEN12_GLOBAL__N_122ConstrainedPropertyValEE6isLessERKSA_SF_(ptr noundef nonnull align 8 dereferenceable(16) %35, ptr noundef nonnull align 8 dereferenceable(16) %36)
  br i1 %37, label %38, label %48

38:                                               ; preds = %34
  %39 = load ptr, ptr %6, align 8
  %40 = load ptr, ptr %7, align 8
  %41 = call noundef ptr @_ZNK4llvm14ImutAVLFactoryINS_16ImutKeyValueInfoISt4pairIPKN5clang4ento9MemRegionEPKNS3_14IdentifierInfoEEN12_GLOBAL__N_122ConstrainedPropertyValEEEE7getLeftEPNS_11ImutAVLTreeISE_EE(ptr noundef nonnull align 8 dereferenceable(80) %10, ptr noundef %40)
  %42 = call noundef ptr @_ZN4llvm14ImutAVLFactoryINS_16ImutKeyValueInfoISt4pairIPKN5clang4ento9MemRegionEPKNS3_14IdentifierInfoEEN12_GLOBAL__N_122ConstrainedPropertyValEEEE12add_internalERKS2_ISB_SD_EPNS_11ImutAVLTreeISE_EE(ptr noundef nonnull align 8 dereferenceable(80) %10, ptr noundef nonnull align 8 dereferenceable(40) %39, ptr noundef %41)
  %43 = load ptr, ptr %7, align 8
  %44 = call noundef nonnull align 8 dereferenceable(40) ptr @_ZNK4llvm14ImutAVLFactoryINS_16ImutKeyValueInfoISt4pairIPKN5clang4ento9MemRegionEPKNS3_14IdentifierInfoEEN12_GLOBAL__N_122ConstrainedPropertyValEEEE8getValueEPNS_11ImutAVLTreeISE_EE(ptr noundef nonnull align 8 dereferenceable(80) %10, ptr noundef %43)
  %45 = load ptr, ptr %7, align 8
  %46 = call noundef ptr @_ZNK4llvm14ImutAVLFactoryINS_16ImutKeyValueInfoISt4pairIPKN5clang4ento9MemRegionEPKNS3_14IdentifierInfoEEN12_GLOBAL__N_122ConstrainedPropertyValEEEE8getRightEPNS_11ImutAVLTreeISE_EE(ptr noundef nonnull align 8 dereferenceable(80) %10, ptr noundef %45)
  %47 = call noundef ptr @_ZN4llvm14ImutAVLFactoryINS_16ImutKeyValueInfoISt4pairIPKN5clang4ento9MemRegionEPKNS3_14IdentifierInfoEEN12_GLOBAL__N_122ConstrainedPropertyValEEEE11balanceTreeEPNS_11ImutAVLTreeISE_EERKS2_ISB_SD_ESI_(ptr noundef nonnull align 8 dereferenceable(80) %10, ptr noundef %42, ptr noundef nonnull align 8 dereferenceable(40) %44, ptr noundef %46)
  store ptr %47, ptr %4, align 8
  br label %58

48:                                               ; preds = %34
  %49 = load ptr, ptr %7, align 8
  %50 = call noundef ptr @_ZNK4llvm14ImutAVLFactoryINS_16ImutKeyValueInfoISt4pairIPKN5clang4ento9MemRegionEPKNS3_14IdentifierInfoEEN12_GLOBAL__N_122ConstrainedPropertyValEEEE7getLeftEPNS_11ImutAVLTreeISE_EE(ptr noundef nonnull align 8 dereferenceable(80) %10, ptr noundef %49)
  %51 = load ptr, ptr %7, align 8
  %52 = call noundef nonnull align 8 dereferenceable(40) ptr @_ZNK4llvm14ImutAVLFactoryINS_16ImutKeyValueInfoISt4pairIPKN5clang4ento9MemRegionEPKNS3_14IdentifierInfoEEN12_GLOBAL__N_122ConstrainedPropertyValEEEE8getValueEPNS_11ImutAVLTreeISE_EE(ptr noundef nonnull align 8 dereferenceable(80) %10, ptr noundef %51)
  %53 = load ptr, ptr %6, align 8
  %54 = load ptr, ptr %7, align 8
  %55 = call noundef ptr @_ZNK4llvm14ImutAVLFactoryINS_16ImutKeyValueInfoISt4pairIPKN5clang4ento9MemRegionEPKNS3_14IdentifierInfoEEN12_GLOBAL__N_122ConstrainedPropertyValEEEE8getRightEPNS_11ImutAVLTreeISE_EE(ptr noundef nonnull align 8 dereferenceable(80) %10, ptr noundef %54)
  %56 = call noundef ptr @_ZN4llvm14ImutAVLFactoryINS_16ImutKeyValueInfoISt4pairIPKN5clang4ento9MemRegionEPKNS3_14IdentifierInfoEEN12_GLOBAL__N_122ConstrainedPropertyValEEEE12add_internalERKS2_ISB_SD_EPNS_11ImutAVLTreeISE_EE(ptr noundef nonnull align 8 dereferenceable(80) %10, ptr noundef nonnull align 8 dereferenceable(40) %53, ptr noundef %55)
  %57 = call noundef ptr @_ZN4llvm14ImutAVLFactoryINS_16ImutKeyValueInfoISt4pairIPKN5clang4ento9MemRegionEPKNS3_14IdentifierInfoEEN12_GLOBAL__N_122ConstrainedPropertyValEEEE11balanceTreeEPNS_11ImutAVLTreeISE_EERKS2_ISB_SD_ESI_(ptr noundef nonnull align 8 dereferenceable(80) %10, ptr noundef %50, ptr noundef nonnull align 8 dereferenceable(40) %52, ptr noundef %56)
  store ptr %57, ptr %4, align 8
  br label %58

58:                                               ; preds = %48, %38, %27, %13
  %59 = load ptr, ptr %4, align 8
  ret ptr %59
}