; Function Attrs: mustprogress nounwind uwtable
define internal fastcc noundef ptr @_ZN4llvm14ImutAVLFactoryINS_16ImutKeyValueInfoISt4pairIPKN5clang4ento9MemRegionEPKNS3_14IdentifierInfoEEN12_GLOBAL__N_122ConstrainedPropertyValEEEE12add_internalERKS2_ISB_SD_EPNS_11ImutAVLTreeISE_EE(ptr noundef nonnull align 8 dereferenceable(80) %0, ptr noundef nonnull align 8 dereferenceable(40) %1, ptr noundef readonly %2) unnamed_addr #0 align 2 {
  %.not.i = icmp eq ptr %2, null
  br i1 %.not.i, label %4, label %6

4:                                                ; preds = %3
  %5 = tail call fastcc noundef ptr @_ZN4llvm14ImutAVLFactoryINS_16ImutKeyValueInfoISt4pairIPKN5clang4ento9MemRegionEPKNS3_14IdentifierInfoEEN12_GLOBAL__N_122ConstrainedPropertyValEEEE10createNodeEPNS_11ImutAVLTreeISE_EERKS2_ISB_SD_ESI_(ptr noundef nonnull align 8 dereferenceable(80) %0, ptr noundef null, ptr noundef nonnull align 8 dereferenceable(40) %1, ptr noundef null)
  br label %common.ret36

6:                                                ; preds = %3
  %7 = getelementptr inbounds nuw i8, ptr %2, i64 48
  %.val = load ptr, ptr %1, align 8
  %8 = getelementptr inbounds nuw i8, ptr %1, i64 8
  %.val23 = load ptr, ptr %8, align 8
  %.val24 = load ptr, ptr %7, align 8
  %9 = getelementptr i8, ptr %2, i64 56
  %.val25 = load ptr, ptr %9, align 8
  %10 = icmp eq ptr %.val, %.val24
  %11 = icmp eq ptr %.val23, %.val25
  %12 = select i1 %10, i1 %11, i1 false
  br i1 %12, label %13, label %17

13:                                               ; preds = %6
  %14 = getelementptr i8, ptr %2, i64 8
  %.val30 = load ptr, ptr %14, align 8
  %15 = getelementptr i8, ptr %2, i64 16
  %.val33 = load ptr, ptr %15, align 8
  %16 = tail call fastcc noundef ptr @_ZN4llvm14ImutAVLFactoryINS_16ImutKeyValueInfoISt4pairIPKN5clang4ento9MemRegionEPKNS3_14IdentifierInfoEEN12_GLOBAL__N_122ConstrainedPropertyValEEEE10createNodeEPNS_11ImutAVLTreeISE_EERKS2_ISB_SD_ESI_(ptr noundef nonnull align 8 dereferenceable(80) %0, ptr noundef %.val30, ptr noundef nonnull align 8 dereferenceable(40) %1, ptr noundef %.val33)
  br label %common.ret36

17:                                               ; preds = %6
  %18 = icmp ult ptr %.val, %.val24
  br i1 %18, label %_ZN4llvm16ImutKeyValueInfoISt4pairIPKN5clang4ento9MemRegionEPKNS2_14IdentifierInfoEEN12_GLOBAL__N_122ConstrainedPropertyValEE6isLessERKSA_SF_.exit.thread, label %_ZN4llvm16ImutKeyValueInfoISt4pairIPKN5clang4ento9MemRegionEPKNS2_14IdentifierInfoEEN12_GLOBAL__N_122ConstrainedPropertyValEE6isLessERKSA_SF_.exit

_ZN4llvm16ImutKeyValueInfoISt4pairIPKN5clang4ento9MemRegionEPKNS2_14IdentifierInfoEEN12_GLOBAL__N_122ConstrainedPropertyValEE6isLessERKSA_SF_.exit: ; preds = %17
  %19 = icmp uge ptr %.val24, %.val
  %20 = icmp ult ptr %.val23, %.val25
  %spec.select.i = select i1 %19, i1 %20, i1 false
  br i1 %spec.select.i, label %_ZN4llvm16ImutKeyValueInfoISt4pairIPKN5clang4ento9MemRegionEPKNS2_14IdentifierInfoEEN12_GLOBAL__N_122ConstrainedPropertyValEE6isLessERKSA_SF_.exit.thread, label %25

common.ret36:                                     ; preds = %13, %4, %25, %_ZN4llvm16ImutKeyValueInfoISt4pairIPKN5clang4ento9MemRegionEPKNS2_14IdentifierInfoEEN12_GLOBAL__N_122ConstrainedPropertyValEE6isLessERKSA_SF_.exit.thread
  %common.ret36.op = phi ptr [ %24, %_ZN4llvm16ImutKeyValueInfoISt4pairIPKN5clang4ento9MemRegionEPKNS2_14IdentifierInfoEEN12_GLOBAL__N_122ConstrainedPropertyValEE6isLessERKSA_SF_.exit.thread ], [ %29, %25 ], [ %5, %4 ], [ %16, %13 ]
  ret ptr %common.ret36.op

_ZN4llvm16ImutKeyValueInfoISt4pairIPKN5clang4ento9MemRegionEPKNS2_14IdentifierInfoEEN12_GLOBAL__N_122ConstrainedPropertyValEE6isLessERKSA_SF_.exit.thread: ; preds = %17, %_ZN4llvm16ImutKeyValueInfoISt4pairIPKN5clang4ento9MemRegionEPKNS2_14IdentifierInfoEEN12_GLOBAL__N_122ConstrainedPropertyValEE6isLessERKSA_SF_.exit
  %21 = getelementptr i8, ptr %2, i64 8
  %.val31 = load ptr, ptr %21, align 8
  %22 = tail call fastcc noundef ptr @_ZN4llvm14ImutAVLFactoryINS_16ImutKeyValueInfoISt4pairIPKN5clang4ento9MemRegionEPKNS3_14IdentifierInfoEEN12_GLOBAL__N_122ConstrainedPropertyValEEEE12add_internalERKS2_ISB_SD_EPNS_11ImutAVLTreeISE_EE(ptr noundef nonnull align 8 dereferenceable(80) %0, ptr noundef nonnull align 8 dereferenceable(40) %1, ptr noundef %.val31)
  %23 = getelementptr i8, ptr %2, i64 16
  %.val34 = load ptr, ptr %23, align 8
  %24 = tail call fastcc noundef ptr @_ZN4llvm14ImutAVLFactoryINS_16ImutKeyValueInfoISt4pairIPKN5clang4ento9MemRegionEPKNS3_14IdentifierInfoEEN12_GLOBAL__N_122ConstrainedPropertyValEEEE11balanceTreeEPNS_11ImutAVLTreeISE_EERKS2_ISB_SD_ESI_(ptr noundef nonnull align 8 dereferenceable(80) %0, ptr noundef %22, ptr noundef nonnull align 8 dereferenceable(40) %7, ptr noundef %.val34)
  br label %common.ret36

25:                                               ; preds = %_ZN4llvm16ImutKeyValueInfoISt4pairIPKN5clang4ento9MemRegionEPKNS2_14IdentifierInfoEEN12_GLOBAL__N_122ConstrainedPropertyValEE6isLessERKSA_SF_.exit
  %26 = getelementptr i8, ptr %2, i64 8
  %.val32 = load ptr, ptr %26, align 8
  %27 = getelementptr i8, ptr %2, i64 16
  %.val35 = load ptr, ptr %27, align 8
  %28 = tail call fastcc noundef ptr @_ZN4llvm14ImutAVLFactoryINS_16ImutKeyValueInfoISt4pairIPKN5clang4ento9MemRegionEPKNS3_14IdentifierInfoEEN12_GLOBAL__N_122ConstrainedPropertyValEEEE12add_internalERKS2_ISB_SD_EPNS_11ImutAVLTreeISE_EE(ptr noundef nonnull align 8 dereferenceable(80) %0, ptr noundef nonnull align 8 dereferenceable(40) %1, ptr noundef %.val35)
  %29 = tail call fastcc noundef ptr @_ZN4llvm14ImutAVLFactoryINS_16ImutKeyValueInfoISt4pairIPKN5clang4ento9MemRegionEPKNS3_14IdentifierInfoEEN12_GLOBAL__N_122ConstrainedPropertyValEEEE11balanceTreeEPNS_11ImutAVLTreeISE_EERKS2_ISB_SD_ESI_(ptr noundef nonnull align 8 dereferenceable(80) %0, ptr noundef %.val32, ptr noundef nonnull align 8 dereferenceable(40) %7, ptr noundef %28)
  br label %common.ret36
}